; Function Attrs: mustprogress nounwind uwtable
define hidden noundef zeroext i1 @_ZN5ciEnv25check_klass_accessibilityEP7ciKlassP5Klass(ptr nocapture noundef nonnull readnone align 8 dereferenceable(1265) %0, ptr noundef %1, ptr noundef %2) local_unnamed_addr #0 align 2 {
  %4 = icmp eq ptr %1, null
  br i1 %4, label %39, label %5

5:                                                ; preds = %3
  %6 = getelementptr inbounds i8, ptr %1, i64 16
  %7 = load ptr, ptr %6, align 8
  %.not.i = icmp eq ptr %7, null
  br i1 %.not.i, label %_ZNK10ciMetadata9is_loadedEv.exit, label %_ZNK10ciMetadata9is_loadedEv.exit.thread

_ZNK10ciMetadata9is_loadedEv.exit:                ; preds = %5
  %8 = load ptr, ptr %1, align 8
  %9 = getelementptr inbounds i8, ptr %8, i64 32
  %10 = load ptr, ptr %9, align 8
  %11 = tail call noundef zeroext i1 %10(ptr noundef nonnull align 8 dereferenceable(24) %1) #18
  br i1 %11, label %_ZNK10ciMetadata9is_loadedEv.exit.thread, label %39

_ZNK10ciMetadata9is_loadedEv.exit.thread:         ; preds = %5, %_ZNK10ciMetadata9is_loadedEv.exit
  %12 = load ptr, ptr %1, align 8
  %13 = getelementptr inbounds i8, ptr %12, i64 96
  %14 = load ptr, ptr %13, align 8
  %15 = tail call noundef zeroext i1 %14(ptr noundef nonnull align 8 dereferenceable(24) %1) #18
  br i1 %15, label %16, label %19

16:                                               ; preds = %_ZNK10ciMetadata9is_loadedEv.exit.thread
  %17 = getelementptr inbounds i8, ptr %1, i64 56
  %18 = load ptr, ptr %17, align 8
  br label %19

19:                                               ; preds = %16, %_ZNK10ciMetadata9is_loadedEv.exit.thread
  %.011 = phi ptr [ %18, %16 ], [ %1, %_ZNK10ciMetadata9is_loadedEv.exit.thread ]
  %20 = load ptr, ptr %.011, align 8
  %21 = getelementptr inbounds i8, ptr %20, i64 80
  %22 = load ptr, ptr %21, align 8
  %23 = tail call noundef zeroext i1 %22(ptr noundef nonnull align 8 dereferenceable(24) %.011) #18
  br i1 %23, label %24, label %39

24:                                               ; preds = %19
  %25 = getelementptr inbounds i8, ptr %2, i64 12
  %26 = load i32, ptr %25, align 4
  %27 = icmp eq i32 %26, 6
  br i1 %27, label %28, label %31

28:                                               ; preds = %24
  %29 = getelementptr inbounds i8, ptr %2, i64 224
  %30 = load ptr, ptr %29, align 8
  %.phi.trans.insert = getelementptr inbounds i8, ptr %30, i64 12
  %.pre = load i32, ptr %.phi.trans.insert, align 4
  br label %31

31:                                               ; preds = %28, %24
  %32 = phi i32 [ %.pre, %28 ], [ %26, %24 ]
  %.0 = phi ptr [ %30, %28 ], [ %2, %24 ]
  %33 = icmp slt i32 %32, 5
  br i1 %33, label %34, label %39

34:                                               ; preds = %31
  %35 = getelementptr inbounds i8, ptr %.011, i64 16
  %36 = load ptr, ptr %35, align 8
  %37 = tail call noundef i32 @_ZN10Reflection19verify_class_accessEPK5KlassPK13InstanceKlassb(ptr noundef %36, ptr noundef nonnull %.0, i1 noundef zeroext true) #18
  %38 = icmp eq i32 %37, 0
  br label %39

39:                                               ; preds = %31, %19, %3, %_ZNK10ciMetadata9is_loadedEv.exit, %34
  %.012 = phi i1 [ %38, %34 ], [ true, %_ZNK10ciMetadata9is_loadedEv.exit ], [ true, %3 ], [ true, %19 ], [ true, %31 ]
  ret i1 %.012
}